; Function Attrs: nounwind uwtable
define ptr @l___private_Lean_Meta_Tactic_Grind_Arith_Cutsat_EqCnstr_0__Lean_Meta_Grind_Arith_Cutsat_isForbiddenParent___lambda__1(i8 noundef zeroext %0, ptr noundef %1, ptr noundef readnone captures(none) %2) local_unnamed_addr #1 {
  switch i8 %0, label %lean_dec.exit [
    i8 0, label %25
    i8 1, label %4
    i8 2, label %11
  ]

4:                                                ; preds = %3
  %5 = load ptr, ptr @l___private_Lean_Meta_Tactic_Grind_Arith_Cutsat_EqCnstr_0__Lean_Meta_Grind_Arith_Cutsat_getKindAndType_x3f___closed__20, align 8, !tbaa !9
  %6 = tail call zeroext i8 @lean_name_eq(ptr noundef %1, ptr noundef %5) #7
  %7 = zext i8 %6 to i64
  %8 = shl nuw nsw i64 %7, 1
  %9 = or disjoint i64 %8, 1
  %10 = inttoptr i64 %9 to ptr
  br label %25

11:                                               ; preds = %3
  %12 = load ptr, ptr @l___private_Lean_Meta_Tactic_Grind_Arith_Cutsat_EqCnstr_0__Lean_Meta_Grind_Arith_Cutsat_getKindAndType_x3f___closed__20, align 8, !tbaa !9
  %13 = tail call zeroext i8 @lean_name_eq(ptr noundef %1, ptr noundef %12) #7
  %14 = icmp eq i8 %13, 0
  br i1 %14, label %15, label %25

15:                                               ; preds = %11
  %16 = load ptr, ptr @l___private_Lean_Meta_Tactic_Grind_Arith_Cutsat_EqCnstr_0__Lean_Meta_Grind_Arith_Cutsat_isForbiddenParent___lambda__1___closed__2, align 8, !tbaa !9
  %17 = tail call zeroext i8 @lean_name_eq(ptr noundef %1, ptr noundef %16) #7
  %18 = zext i8 %17 to i64
  %19 = shl nuw nsw i64 %18, 1
  %20 = or disjoint i64 %19, 1
  %21 = inttoptr i64 %20 to ptr
  br label %25

lean_dec.exit:                                    ; preds = %3
  %22 = load ptr, ptr @l___private_Lean_Meta_Tactic_Grind_Arith_Cutsat_EqCnstr_0__Lean_Meta_Grind_Arith_Cutsat_isForbiddenParent___lambda__1___closed__6, align 8, !tbaa !9
  %23 = load ptr, ptr @l_panic___at___private_Lean_Meta_Tactic_Grind_Arith_Cutsat_EqCnstr_0__Lean_Meta_Grind_Arith_Cutsat_isForbiddenParent___spec__1___closed__1, align 8, !tbaa !9
  %24 = tail call ptr @lean_panic_fn(ptr noundef %23, ptr noundef %22) #7
  br label %25

25:                                               ; preds = %11, %3, %15, %lean_dec.exit, %4
  %.0 = phi ptr [ %24, %lean_dec.exit ], [ %10, %4 ], [ %21, %15 ], [ inttoptr (i64 1 to ptr), %3 ], [ inttoptr (i64 3 to ptr), %11 ]
  ret ptr %.0
}